; Function Attrs: nounwind uwtable
define ptr @l_Lean_RBNode_fold___at_Lake_initFacetConfigs_insert___spec__1(ptr noundef readnone captures(none) %0, ptr noundef %1, ptr noundef %2) local_unnamed_addr #0 {
  br label %4

4:                                                ; preds = %lean_dec.exit, %3
  %.019 = phi ptr [ %2, %3 ], [ %47, %lean_dec.exit ]
  %.0 = phi ptr [ %1, %3 ], [ %64, %lean_dec.exit ]
  %5 = ptrtoint ptr %.019 to i64
  %6 = and i64 %5, 1
  %.not.i23 = icmp eq i64 %6, 0
  br i1 %.not.i23, label %10, label %7

7:                                                ; preds = %4
  %8 = lshr i64 %5, 1
  %9 = trunc i64 %8 to i32
  br label %lean_obj_tag.exit

10:                                               ; preds = %4
  %11 = getelementptr i8, ptr %.019, i64 4
  %.val.i = load i32, ptr %11, align 4
  %12 = lshr i32 %.val.i, 24
  br label %lean_obj_tag.exit

lean_obj_tag.exit:                                ; preds = %7, %10
  %.0.i = phi i32 [ %9, %7 ], [ %12, %10 ]
  %13 = icmp eq i32 %.0.i, 0
  br i1 %13, label %14, label %15

14:                                               ; preds = %lean_obj_tag.exit
  ret ptr %.0

15:                                               ; preds = %lean_obj_tag.exit
  %16 = getelementptr inbounds nuw i8, ptr %.019, i64 8
  %17 = load ptr, ptr %16, align 8, !tbaa !4
  %18 = ptrtoint ptr %17 to i64
  %19 = and i64 %18, 1
  %.not = icmp eq i64 %19, 0
  br i1 %.not, label %20, label %lean_inc.exit

20:                                               ; preds = %15
  %.val.i24 = load i32, ptr %17, align 4, !tbaa !8
  %21 = icmp sgt i32 %.val.i24, 0
  br i1 %21, label %22, label %24, !prof !11

22:                                               ; preds = %20
  %23 = add nuw i32 %.val.i24, 1
  store i32 %23, ptr %17, align 4, !tbaa !8
  br label %lean_inc.exit

24:                                               ; preds = %20
  %.not.i25 = icmp eq i32 %.val.i24, 0
  br i1 %.not.i25, label %lean_inc.exit, label %25

25:                                               ; preds = %24
  tail call void @lean_inc_ref_cold(ptr noundef nonnull %17) #4
  br label %lean_inc.exit

lean_inc.exit:                                    ; preds = %25, %24, %22, %15
  %26 = getelementptr inbounds nuw i8, ptr %.019, i64 16
  %27 = load ptr, ptr %26, align 8, !tbaa !4
  %28 = ptrtoint ptr %27 to i64
  %29 = and i64 %28, 1
  %.not35 = icmp eq i64 %29, 0
  br i1 %.not35, label %30, label %lean_inc.exit20

30:                                               ; preds = %lean_inc.exit
  %.val.i26 = load i32, ptr %27, align 4, !tbaa !8
  %31 = icmp sgt i32 %.val.i26, 0
  br i1 %31, label %32, label %34, !prof !11

32:                                               ; preds = %30
  %33 = add nuw i32 %.val.i26, 1
  store i32 %33, ptr %27, align 4, !tbaa !8
  br label %lean_inc.exit20

34:                                               ; preds = %30
  %.not.i27 = icmp eq i32 %.val.i26, 0
  br i1 %.not.i27, label %lean_inc.exit20, label %35

35:                                               ; preds = %34
  tail call void @lean_inc_ref_cold(ptr noundef nonnull %27) #4
  br label %lean_inc.exit20

lean_inc.exit20:                                  ; preds = %35, %34, %32, %lean_inc.exit
  %36 = getelementptr inbounds nuw i8, ptr %.019, i64 24
  %37 = load ptr, ptr %36, align 8, !tbaa !4
  %38 = ptrtoint ptr %37 to i64
  %39 = and i64 %38, 1
  %.not36 = icmp eq i64 %39, 0
  br i1 %.not36, label %40, label %lean_inc.exit21

40:                                               ; preds = %lean_inc.exit20
  %.val.i29 = load i32, ptr %37, align 4, !tbaa !8
  %41 = icmp sgt i32 %.val.i29, 0
  br i1 %41, label %42, label %44, !prof !11

42:                                               ; preds = %40
  %43 = add nuw i32 %.val.i29, 1
  store i32 %43, ptr %37, align 4, !tbaa !8
  br label %lean_inc.exit21

44:                                               ; preds = %40
  %.not.i30 = icmp eq i32 %.val.i29, 0
  br i1 %.not.i30, label %lean_inc.exit21, label %45

45:                                               ; preds = %44
  tail call void @lean_inc_ref_cold(ptr noundef nonnull %37) #4
  br label %lean_inc.exit21

lean_inc.exit21:                                  ; preds = %45, %44, %42, %lean_inc.exit20
  %46 = getelementptr inbounds nuw i8, ptr %.019, i64 32
  %47 = load ptr, ptr %46, align 8, !tbaa !4
  %48 = ptrtoint ptr %47 to i64
  %49 = and i64 %48, 1
  %.not37 = icmp eq i64 %49, 0
  br i1 %.not37, label %50, label %lean_inc.exit22

50:                                               ; preds = %lean_inc.exit21
  %.val.i32 = load i32, ptr %47, align 4, !tbaa !8
  %51 = icmp sgt i32 %.val.i32, 0
  br i1 %51, label %52, label %54, !prof !11

52:                                               ; preds = %50
  %53 = add nuw i32 %.val.i32, 1
  store i32 %53, ptr %47, align 4, !tbaa !8
  br label %lean_inc.exit22

54:                                               ; preds = %50
  %.not.i33 = icmp eq i32 %.val.i32, 0
  br i1 %.not.i33, label %lean_inc.exit22, label %55

55:                                               ; preds = %54
  tail call void @lean_inc_ref_cold(ptr noundef nonnull %47) #4
  br label %lean_inc.exit22

lean_inc.exit22:                                  ; preds = %55, %54, %52, %lean_inc.exit21
  br i1 %.not.i23, label %56, label %lean_dec.exit

56:                                               ; preds = %lean_inc.exit22
  %57 = load i32, ptr %.019, align 4, !tbaa !8
  %58 = icmp sgt i32 %57, 1
  br i1 %58, label %59, label %61, !prof !11

59:                                               ; preds = %56
  %60 = add nsw i32 %57, -1
  store i32 %60, ptr %.019, align 4, !tbaa !8
  br label %lean_dec.exit

61:                                               ; preds = %56
  %.not.i = icmp eq i32 %57, 0
  br i1 %.not.i, label %lean_dec.exit, label %62

62:                                               ; preds = %61
  tail call void @lean_dec_ref_cold(ptr noundef nonnull %.019) #4
  br label %lean_dec.exit

lean_dec.exit:                                    ; preds = %62, %61, %59, %lean_inc.exit22
  %63 = tail call ptr @l_Lean_RBNode_fold___at_Lake_initFacetConfigs_insert___spec__1(ptr noundef %0, ptr noundef %.0, ptr noundef %17)
  %64 = tail call ptr @l_Lean_RBNode_insert___at_Lake_Workspace_addFacetConfig___spec__1(ptr noundef %63, ptr noundef %27, ptr noundef %37) #4
  br label %4
}